target datalayout = "e-m:e-p270:32:32-p271:32:32-p272:64:64-i64:64-i128:128-f80:128-n8:16:32:64-S128"
target triple = "x86_64-pc-linux-gnu"

%"struct.absl::cord_internal::CordRepBtreeNavigator::Position" = type { ptr, i64 }
%"class.absl::cord_internal::CordRepBtreeNavigator" = type { i32, [12 x i8], [12 x ptr] }
%"struct.absl::cord_internal::CordRep" = type { i64, %"class.absl::cord_internal::RefcountAndFlags", i8, [3 x i8] }
%"class.absl::cord_internal::RefcountAndFlags" = type { %"struct.std::atomic" }
%"struct.std::atomic" = type { %"struct.std::__atomic_base" }
%"struct.std::__atomic_base" = type { i32 }
%"class.absl::cord_internal::CordRepBtree" = type { %"struct.absl::cord_internal::CordRep", [6 x ptr] }

; Function Attrs: mustprogress nounwind uwtable
define linkonce_odr dso_local noundef i64 @_ZNK4absl13cord_internal12CordRepBtree5beginEv(ptr noundef nonnull align 8 dereferenceable(64) %0) #7 comdat align 2 {
  %2 = alloca ptr, align 8
  store ptr %0, ptr %2, align 8, !tbaa !14
  %3 = load ptr, ptr %2, align 8
  %4 = getelementptr inbounds nuw %"struct.absl::cord_internal::CordRep", ptr %3, i32 0, i32 3
  %5 = getelementptr inbounds [3 x i8], ptr %4, i64 0, i64 1
  %6 = load i8, ptr %5, align 1, !tbaa !13
  %7 = zext i8 %6 to i64
  ret i64 %7
}

; Function Attrs: inlinehint mustprogress nounwind uwtable
define linkonce_odr dso_local noundef ptr @_ZN4absl13cord_internal7CordRep5btreeEv(ptr noundef nonnull align 8 dereferenceable(16) %0) #6 comdat align 2 {
  %2 = alloca ptr, align 8
  store ptr %0, ptr %2, align 8, !tbaa !16
  %3 = load ptr, ptr %2, align 8
  ret ptr %3
}

; Function Attrs: mustprogress nounwind uwtable
define linkonce_odr dso_local noundef i64 @_ZNK4absl13cord_internal12CordRepBtree3endEv(ptr noundef nonnull align 8 dereferenceable(64) %0) #7 comdat align 2 {
  %2 = alloca ptr, align 8
  store ptr %0, ptr %2, align 8, !tbaa !14
  %3 = load ptr, ptr %2, align 8
  %4 = getelementptr inbounds nuw %"struct.absl::cord_internal::CordRep", ptr %3, i32 0, i32 3
  %5 = getelementptr inbounds [3 x i8], ptr %4, i64 0, i64 2
  %6 = load i8, ptr %5, align 1, !tbaa !13
  %7 = zext i8 %6 to i64
  ret i64 %7
}

; Function Attrs: inlinehint mustprogress nounwind uwtable
define linkonce_odr dso_local noundef ptr @_ZNK4absl13cord_internal12CordRepBtree4EdgeEm(ptr noundef nonnull align 8 dereferenceable(64) %0, i64 noundef %1) #6 comdat align 2 {
  %3 = alloca ptr, align 8
  %4 = alloca i64, align 8
  store ptr %0, ptr %3, align 8, !tbaa !14
  store i64 %1, ptr %4, align 8, !tbaa !9
  %5 = load ptr, ptr %3, align 8
  %6 = getelementptr inbounds nuw %"class.absl::cord_internal::CordRepBtree", ptr %5, i32 0, i32 1
  %7 = load i64, ptr %4, align 8, !tbaa !9
  %8 = getelementptr inbounds nuw [6 x ptr], ptr %6, i64 0, i64 %7
  %9 = load ptr, ptr %8, align 8, !tbaa !16
  ret ptr %9
}

; Function Attrs: mustprogress uwtable
define dso_local { ptr, i64 } @_ZN4absl13cord_internal21CordRepBtreeNavigator4SkipEm(ptr noundef nonnull align 8 dereferenceable(112) %0, i64 noundef %1) #4 align 2 {
  %3 = alloca %"struct.absl::cord_internal::CordRepBtreeNavigator::Position", align 8
  %4 = alloca ptr, align 8
  %5 = alloca i64, align 8
  %6 = alloca i32, align 4
  %7 = alloca i64, align 8
  %8 = alloca ptr, align 8
  %9 = alloca ptr, align 8
  %10 = alloca i32, align 4
  store ptr %0, ptr %4, align 8, !tbaa !4
  store i64 %1, ptr %5, align 8, !tbaa !9
  %11 = load ptr, ptr %4, align 8
  call void @llvm.lifetime.start.p0(i64 4, ptr %6) #3
  store i32 0, ptr %6, align 4, !tbaa !11
  call void @llvm.lifetime.start.p0(i64 8, ptr %7) #3
  %12 = getelementptr inbounds nuw %"class.absl::cord_internal::CordRepBtreeNavigator", ptr %11, i32 0, i32 1
  %13 = getelementptr inbounds [12 x i8], ptr %12, i64 0, i64 0
  %14 = load i8, ptr %13, align 4, !tbaa !13
  %15 = zext i8 %14 to i64
  store i64 %15, ptr %7, align 8, !tbaa !9
  call void @llvm.lifetime.start.p0(i64 8, ptr %8) #3
  %16 = getelementptr inbounds nuw %"class.absl::cord_internal::CordRepBtreeNavigator", ptr %11, i32 0, i32 2
  %17 = getelementptr inbounds [12 x ptr], ptr %16, i64 0, i64 0
  %18 = load ptr, ptr %17, align 8, !tbaa !14
  store ptr %18, ptr %8, align 8, !tbaa !14
  call void @llvm.lifetime.start.p0(i64 8, ptr %9) #3
  %19 = load ptr, ptr %8, align 8, !tbaa !14
  %20 = load i64, ptr %7, align 8, !tbaa !9
  %21 = call noundef ptr @_ZNK4absl13cord_internal12CordRepBtree4EdgeEm(ptr noundef nonnull align 8 dereferenceable(64) %19, i64 noundef %20)
  store ptr %21, ptr %9, align 8, !tbaa !16
  br label %22

22:                                               ; preds = %62, %2
  %23 = load i64, ptr %5, align 8, !tbaa !9
  %24 = load ptr, ptr %9, align 8, !tbaa !16
  %25 = getelementptr inbounds nuw %"struct.absl::cord_internal::CordRep", ptr %24, i32 0, i32 0
  %26 = load i64, ptr %25, align 8, !tbaa !18
  %27 = icmp uge i64 %23, %26
  br i1 %27, label %28, label %66

28:                                               ; preds = %22
  %29 = load ptr, ptr %9, align 8, !tbaa !16
  %30 = getelementptr inbounds nuw %"struct.absl::cord_internal::CordRep", ptr %29, i32 0, i32 0
  %31 = load i64, ptr %30, align 8, !tbaa !18
  %32 = load i64, ptr %5, align 8, !tbaa !9
  %33 = sub i64 %32, %31
  store i64 %33, ptr %5, align 8, !tbaa !9
  br label %34

34:                                               ; preds = %50, %28
  %35 = load i64, ptr %7, align 8, !tbaa !9
  %36 = add i64 %35, 1
  store i64 %36, ptr %7, align 8, !tbaa !9
  %37 = load ptr, ptr %8, align 8, !tbaa !14
  %38 = call noundef i64 @_ZNK4absl13cord_internal12CordRepBtree3endEv(ptr noundef nonnull align 8 dereferenceable(64) %37)
  %39 = icmp eq i64 %36, %38
  br i1 %39, label %40, label %62

40:                                               ; preds = %34
  %41 = load i32, ptr %6, align 4, !tbaa !11
  %42 = add nsw i32 %41, 1
  store i32 %42, ptr %6, align 4, !tbaa !11
  %43 = getelementptr inbounds nuw %"class.absl::cord_internal::CordRepBtreeNavigator", ptr %11, i32 0, i32 0
  %44 = load i32, ptr %43, align 8, !tbaa !23
  %45 = icmp sgt i32 %42, %44
  br i1 %45, label %46, label %50

46:                                               ; preds = %40
  %47 = getelementptr inbounds nuw %"struct.absl::cord_internal::CordRepBtreeNavigator::Position", ptr %3, i32 0, i32 0
  store ptr null, ptr %47, align 8, !tbaa !25
  %48 = getelementptr inbounds nuw %"struct.absl::cord_internal::CordRepBtreeNavigator::Position", ptr %3, i32 0, i32 1
  %49 = load i64, ptr %5, align 8, !tbaa !9
  store i64 %49, ptr %48, align 8, !tbaa !27
  store i32 1, ptr %10, align 4
  br label %117

50:                                               ; preds = %40
  %51 = getelementptr inbounds nuw %"class.absl::cord_internal::CordRepBtreeNavigator", ptr %11, i32 0, i32 2
  %52 = load i32, ptr %6, align 4, !tbaa !11
  %53 = sext i32 %52 to i64
  %54 = getelementptr inbounds [12 x ptr], ptr %51, i64 0, i64 %53
  %55 = load ptr, ptr %54, align 8, !tbaa !14
  store ptr %55, ptr %8, align 8, !tbaa !14
  %56 = getelementptr inbounds nuw %"class.absl::cord_internal::CordRepBtreeNavigator", ptr %11, i32 0, i32 1
  %57 = load i32, ptr %6, align 4, !tbaa !11
  %58 = sext i32 %57 to i64
  %59 = getelementptr inbounds [12 x i8], ptr %56, i64 0, i64 %58
  %60 = load i8, ptr %59, align 1, !tbaa !13
  %61 = zext i8 %60 to i64
  store i64 %61, ptr %7, align 8, !tbaa !9
  br label %34, !llvm.loop !28

62:                                               ; preds = %34
  %63 = load ptr, ptr %8, align 8, !tbaa !14
  %64 = load i64, ptr %7, align 8, !tbaa !9
  %65 = call noundef ptr @_ZNK4absl13cord_internal12CordRepBtree4EdgeEm(ptr noundef nonnull align 8 dereferenceable(64) %63, i64 noundef %64)
  store ptr %65, ptr %9, align 8, !tbaa !16
  br label %22, !llvm.loop !30

66:                                               ; preds = %22
  br label %67

67:                                               ; preds = %107, %66
  %68 = load i32, ptr %6, align 4, !tbaa !11
  %69 = icmp sgt i32 %68, 0
  br i1 %69, label %70, label %108

70:                                               ; preds = %67
  %71 = load ptr, ptr %9, align 8, !tbaa !16
  %72 = call noundef ptr @_ZN4absl13cord_internal7CordRep5btreeEv(ptr noundef nonnull align 8 dereferenceable(16) %71)
  store ptr %72, ptr %8, align 8, !tbaa !14
  %73 = load i64, ptr %7, align 8, !tbaa !9
  %74 = trunc i64 %73 to i8
  %75 = getelementptr inbounds nuw %"class.absl::cord_internal::CordRepBtreeNavigator", ptr %11, i32 0, i32 1
  %76 = load i32, ptr %6, align 4, !tbaa !11
  %77 = sext i32 %76 to i64
  %78 = getelementptr inbounds [12 x i8], ptr %75, i64 0, i64 %77
  store i8 %74, ptr %78, align 1, !tbaa !13
  %79 = load ptr, ptr %8, align 8, !tbaa !14
  %80 = getelementptr inbounds nuw %"class.absl::cord_internal::CordRepBtreeNavigator", ptr %11, i32 0, i32 2
  %81 = load i32, ptr %6, align 4, !tbaa !11
  %82 = add nsw i32 %81, -1
  store i32 %82, ptr %6, align 4, !tbaa !11
  %83 = sext i32 %82 to i64
  %84 = getelementptr inbounds [12 x ptr], ptr %80, i64 0, i64 %83
  store ptr %79, ptr %84, align 8, !tbaa !14
  %85 = load ptr, ptr %8, align 8, !tbaa !14
  %86 = call noundef i64 @_ZNK4absl13cord_internal12CordRepBtree5beginEv(ptr noundef nonnull align 8 dereferenceable(64) %85)
  store i64 %86, ptr %7, align 8, !tbaa !9
  %87 = load ptr, ptr %8, align 8, !tbaa !14
  %88 = load i64, ptr %7, align 8, !tbaa !9
  %89 = call noundef ptr @_ZNK4absl13cord_internal12CordRepBtree4EdgeEm(ptr noundef nonnull align 8 dereferenceable(64) %87, i64 noundef %88)
  store ptr %89, ptr %9, align 8, !tbaa !16
  br label %90

90:                                               ; preds = %96, %70
  %91 = load i64, ptr %5, align 8, !tbaa !9
  %92 = load ptr, ptr %9, align 8, !tbaa !16
  %93 = getelementptr inbounds nuw %"struct.absl::cord_internal::CordRep", ptr %92, i32 0, i32 0
  %94 = load i64, ptr %93, align 8, !tbaa !18
  %95 = icmp uge i64 %91, %94
  br i1 %95, label %96, label %107

96:                                               ; preds = %90
  %97 = load ptr, ptr %9, align 8, !tbaa !16
  %98 = getelementptr inbounds nuw %"struct.absl::cord_internal::CordRep", ptr %97, i32 0, i32 0
  %99 = load i64, ptr %98, align 8, !tbaa !18
  %100 = load i64, ptr %5, align 8, !tbaa !9
  %101 = sub i64 %100, %99
  store i64 %101, ptr %5, align 8, !tbaa !9
  %102 = load i64, ptr %7, align 8, !tbaa !9
  %103 = add i64 %102, 1
  store i64 %103, ptr %7, align 8, !tbaa !9
  %104 = load ptr, ptr %8, align 8, !tbaa !14
  %105 = load i64, ptr %7, align 8, !tbaa !9
  %106 = call noundef ptr @_ZNK4absl13cord_internal12CordRepBtree4EdgeEm(ptr noundef nonnull align 8 dereferenceable(64) %104, i64 noundef %105)
  store ptr %106, ptr %9, align 8, !tbaa !16
  br label %90, !llvm.loop !31

107:                                              ; preds = %90
  br label %67, !llvm.loop !32

108:                                              ; preds = %67
  %109 = load i64, ptr %7, align 8, !tbaa !9
  %110 = trunc i64 %109 to i8
  %111 = getelementptr inbounds nuw %"class.absl::cord_internal::CordRepBtreeNavigator", ptr %11, i32 0, i32 1
  %112 = getelementptr inbounds [12 x i8], ptr %111, i64 0, i64 0
  store i8 %110, ptr %112, align 4, !tbaa !13
  %113 = getelementptr inbounds nuw %"struct.absl::cord_internal::CordRepBtreeNavigator::Position", ptr %3, i32 0, i32 0
  %114 = load ptr, ptr %9, align 8, !tbaa !16
  store ptr %114, ptr %113, align 8, !tbaa !25
  %115 = getelementptr inbounds nuw %"struct.absl::cord_internal::CordRepBtreeNavigator::Position", ptr %3, i32 0, i32 1
  %116 = load i64, ptr %5, align 8, !tbaa !9
  store i64 %116, ptr %115, align 8, !tbaa !27
  store i32 1, ptr %10, align 4
  br label %117

117:                                              ; preds = %108, %46
  call void @llvm.lifetime.end.p0(i64 8, ptr %9) #3
  call void @llvm.lifetime.end.p0(i64 8, ptr %8) #3
  call void @llvm.lifetime.end.p0(i64 8, ptr %7) #3
  call void @llvm.lifetime.end.p0(i64 4, ptr %6) #3
  %118 = load { ptr, i64 }, ptr %3, align 8
  ret { ptr, i64 } %118
}