; Function Attrs: mustprogress nofree norecurse nosync nounwind memory(read, argmem: readwrite, inaccessiblemem: none) uwtable
define dso_local { ptr, i64 } @_ZN4absl13cord_internal21CordRepBtreeNavigator4SkipEm(ptr noundef nonnull align 8 captures(none) dereferenceable(112) %0, i64 noundef %1) local_unnamed_addr #3 align 2 {
  %3 = getelementptr inbounds nuw i8, ptr %0, i64 4
  %4 = load i8, ptr %3, align 4, !tbaa !4
  %5 = zext i8 %4 to i64
  %6 = getelementptr inbounds nuw i8, ptr %0, i64 16
  %7 = load ptr, ptr %6, align 8, !tbaa !7
  %8 = getelementptr inbounds nuw i8, ptr %7, i64 16
  %9 = getelementptr inbounds nuw [6 x ptr], ptr %8, i64 0, i64 %5
  %.062 = load ptr, ptr %9, align 8, !tbaa !10
  %10 = load i64, ptr %.062, align 8, !tbaa !12
  %.not63 = icmp ult i64 %1, %10
  br i1 %.not63, label %._crit_edge89, label %.lr.ph69

.lr.ph69:                                         ; preds = %2
  %11 = load i32, ptr %0, align 8
  br label %14

.preheader:                                       ; preds = %._crit_edge
  %12 = icmp sgt i32 %.139.lcssa, 0
  br i1 %12, label %.lr.ph88.preheader, label %._crit_edge89

.lr.ph88.preheader:                               ; preds = %.preheader
  %13 = zext nneg i32 %.139.lcssa to i64
  br label %.lr.ph88

14:                                               ; preds = %.lr.ph69, %._crit_edge
  %15 = phi i64 [ %10, %.lr.ph69 ], [ %37, %._crit_edge ]
  %.03367 = phi ptr [ %7, %.lr.ph69 ], [ %.134.lcssa, %._crit_edge ]
  %.03566 = phi i64 [ %5, %.lr.ph69 ], [ %.lcssa, %._crit_edge ]
  %.03865 = phi i32 [ 0, %.lr.ph69 ], [ %.139.lcssa, %._crit_edge ]
  %.04164 = phi i64 [ %1, %.lr.ph69 ], [ %16, %._crit_edge ]
  %16 = sub nuw i64 %.04164, %15
  %17 = add i64 %.03566, 1
  %18 = getelementptr inbounds nuw i8, ptr %.03367, i64 15
  %19 = load i8, ptr %18, align 1, !tbaa !4
  %20 = zext i8 %19 to i64
  %21 = icmp eq i64 %17, %20
  br i1 %21, label %.lr.ph.preheader, label %._crit_edge

.lr.ph.preheader:                                 ; preds = %14
  %22 = sext i32 %.03865 to i64
  %smax = tail call i32 @llvm.smax.i32(i32 %.03865, i32 %11)
  %wide.trip.count = sext i32 %smax to i64
  br label %.lr.ph

.lr.ph:                                           ; preds = %.lr.ph.preheader, %23
  %indvars.iv = phi i64 [ %22, %.lr.ph.preheader ], [ %indvars.iv.next, %23 ]
  %exitcond.not = icmp eq i64 %indvars.iv, %wide.trip.count
  br i1 %exitcond.not, label %.loopexit50, label %23

23:                                               ; preds = %.lr.ph
  %indvars.iv.next = add nsw i64 %indvars.iv, 1
  %24 = getelementptr inbounds [12 x ptr], ptr %6, i64 0, i64 %indvars.iv.next
  %25 = load ptr, ptr %24, align 8, !tbaa !7
  %26 = getelementptr inbounds [12 x i8], ptr %3, i64 0, i64 %indvars.iv.next
  %27 = load i8, ptr %26, align 1, !tbaa !4
  %28 = zext i8 %27 to i64
  %29 = add nuw nsw i64 %28, 1
  %30 = getelementptr inbounds nuw i8, ptr %25, i64 15
  %31 = load i8, ptr %30, align 1, !tbaa !4
  %32 = zext i8 %31 to i64
  %33 = icmp eq i64 %29, %32
  br i1 %33, label %.lr.ph, label %._crit_edge.loopexit, !llvm.loop !19

._crit_edge.loopexit:                             ; preds = %23
  %34 = trunc nsw i64 %indvars.iv.next to i32
  br label %._crit_edge

._crit_edge:                                      ; preds = %._crit_edge.loopexit, %14
  %.139.lcssa = phi i32 [ %.03865, %14 ], [ %34, %._crit_edge.loopexit ]
  %.134.lcssa = phi ptr [ %.03367, %14 ], [ %25, %._crit_edge.loopexit ]
  %.lcssa = phi i64 [ %17, %14 ], [ %29, %._crit_edge.loopexit ]
  %35 = getelementptr inbounds nuw i8, ptr %.134.lcssa, i64 16
  %36 = getelementptr inbounds nuw [6 x ptr], ptr %35, i64 0, i64 %.lcssa
  %.0 = load ptr, ptr %36, align 8, !tbaa !10
  %37 = load i64, ptr %.0, align 8, !tbaa !12
  %.not = icmp ult i64 %16, %37
  br i1 %.not, label %.preheader, label %14, !llvm.loop !21

.loopexit:                                        ; preds = %.lr.ph80, %.lr.ph88
  %.243.lcssa = phi i64 [ %.14284, %.lr.ph88 ], [ %48, %.lr.ph80 ]
  %.3.lcssa = phi i64 [ %44, %.lr.ph88 ], [ %49, %.lr.ph80 ]
  %.2.lcssa = phi ptr [ %.275, %.lr.ph88 ], [ %.2, %.lr.ph80 ]
  %38 = icmp sgt i64 %indvars.iv103, 1
  br i1 %38, label %.lr.ph88, label %._crit_edge89, !llvm.loop !22

.lr.ph88:                                         ; preds = %.lr.ph88.preheader, %.loopexit
  %indvars.iv103 = phi i64 [ %13, %.lr.ph88.preheader ], [ %indvars.iv.next104, %.loopexit ]
  %.187 = phi ptr [ %.0, %.lr.ph88.preheader ], [ %.2.lcssa, %.loopexit ]
  %.23786 = phi i64 [ %.lcssa, %.lr.ph88.preheader ], [ %.3.lcssa, %.loopexit ]
  %.14284 = phi i64 [ %16, %.lr.ph88.preheader ], [ %.243.lcssa, %.loopexit ]
  %39 = trunc i64 %.23786 to i8
  %40 = getelementptr inbounds nuw [12 x i8], ptr %3, i64 0, i64 %indvars.iv103
  store i8 %39, ptr %40, align 1, !tbaa !4
  %indvars.iv.next104 = add nsw i64 %indvars.iv103, -1
  %41 = getelementptr inbounds nuw [12 x ptr], ptr %6, i64 0, i64 %indvars.iv.next104
  store ptr %.187, ptr %41, align 8, !tbaa !7
  %42 = getelementptr inbounds nuw i8, ptr %.187, i64 14
  %43 = load i8, ptr %42, align 1, !tbaa !4
  %44 = zext i8 %43 to i64
  %45 = getelementptr inbounds nuw i8, ptr %.187, i64 16
  %.2.in74 = getelementptr inbounds nuw [6 x ptr], ptr %45, i64 0, i64 %44
  %.275 = load ptr, ptr %.2.in74, align 8, !tbaa !10
  %46 = load i64, ptr %.275, align 8, !tbaa !12
  %.not4876 = icmp ult i64 %.14284, %46
  br i1 %.not4876, label %.loopexit, label %.lr.ph80

.lr.ph80:                                         ; preds = %.lr.ph88, %.lr.ph80
  %47 = phi i64 [ %50, %.lr.ph80 ], [ %46, %.lr.ph88 ]
  %.378 = phi i64 [ %49, %.lr.ph80 ], [ %44, %.lr.ph88 ]
  %.24377 = phi i64 [ %48, %.lr.ph80 ], [ %.14284, %.lr.ph88 ]
  %48 = sub nuw i64 %.24377, %47
  %49 = add i64 %.378, 1
  %.2.in = getelementptr inbounds nuw [6 x ptr], ptr %45, i64 0, i64 %49
  %.2 = load ptr, ptr %.2.in, align 8, !tbaa !10
  %50 = load i64, ptr %.2, align 8, !tbaa !12
  %.not48 = icmp ult i64 %48, %50
  br i1 %.not48, label %.loopexit, label %.lr.ph80, !llvm.loop !23

._crit_edge89:                                    ; preds = %.loopexit, %2, %.preheader
  %.142.lcssa = phi i64 [ %16, %.preheader ], [ %1, %2 ], [ %.243.lcssa, %.loopexit ]
  %.237.lcssa = phi i64 [ %.lcssa, %.preheader ], [ %5, %2 ], [ %.3.lcssa, %.loopexit ]
  %.1.lcssa = phi ptr [ %.0, %.preheader ], [ %.062, %2 ], [ %.2.lcssa, %.loopexit ]
  %51 = trunc i64 %.237.lcssa to i8
  store i8 %51, ptr %3, align 4, !tbaa !4
  br label %.loopexit50

.loopexit50:                                      ; preds = %.lr.ph, %._crit_edge89
  %.sroa.0.0 = phi ptr [ %.1.lcssa, %._crit_edge89 ], [ null, %.lr.ph ]
  %.sroa.3.0 = phi i64 [ %.142.lcssa, %._crit_edge89 ], [ %16, %.lr.ph ]
  %.fca.0.insert = insertvalue { ptr, i64 } poison, ptr %.sroa.0.0, 0
  %.fca.1.insert = insertvalue { ptr, i64 } %.fca.0.insert, i64 %.sroa.3.0, 1
  ret { ptr, i64 } %.fca.1.insert
}